target datalayout = "e-m:e-p270:32:32-p271:32:32-p272:64:64-i64:64-i128:128-f80:128-n8:16:32:64-S128"
target triple = "x86_64-unknown-linux-gnu"

%"struct.std::atomic.0" = type { %"struct.std::__atomic_base.1" }
%"struct.std::__atomic_base.1" = type { i64 }
%"class.grpc_core::ChannelArgs" = type { %"class.grpc_core::AVL" }
%"class.grpc_core::AVL" = type { %"class.grpc_core::RefCountedPtr.2" }
%"class.grpc_core::RefCountedPtr.2" = type { ptr }
%"class.grpc_core::RefCountedPtr" = type { ptr }
%struct.grpc_closure = type { %union.anon, ptr, ptr, %union.anon.3 }
%union.anon = type { ptr }
%union.anon.3 = type { i64 }
%"class.absl::lts_20230802::Status" = type { i64 }
%"class.grpc_core::RefCountedPtr.17" = type { ptr }
%"class.grpc_core::Timestamp" = type { i64 }
%"struct.std::atomic.23" = type { %"struct.std::__atomic_base.24" }
%"struct.std::__atomic_base.24" = type { i64 }
%"class.absl::lts_20230802::Mutex" = type { %"struct.std::atomic.0" }
%"class.grpc_core::RefCountedPtr.32" = type { ptr }
%"class.grpc_core::Subchannel::ConnectivityStateWatcherList" = type { ptr, %"class.std::map" }
%"class.std::map" = type { %"class.std::_Rb_tree" }
%"class.std::_Rb_tree" = type { %"struct.std::_Rb_tree<grpc_core::Subchannel::ConnectivityStateWatcherInterface *, std::pair<grpc_core::Subchannel::ConnectivityStateWatcherInterface *const, grpc_core::RefCountedPtr<grpc_core::Subchannel::ConnectivityStateWatcherInterface>>, std::_Select1st<std::pair<grpc_core::Subchannel::ConnectivityStateWatcherInterface *const, grpc_core::RefCountedPtr<grpc_core::Subchannel::ConnectivityStateWatcherInterface>>>, std::less<grpc_core::Subchannel::ConnectivityStateWatcherInterface *>>::_Rb_tree_impl" }
%"struct.std::_Rb_tree<grpc_core::Subchannel::ConnectivityStateWatcherInterface *, std::pair<grpc_core::Subchannel::ConnectivityStateWatcherInterface *const, grpc_core::RefCountedPtr<grpc_core::Subchannel::ConnectivityStateWatcherInterface>>, std::_Select1st<std::pair<grpc_core::Subchannel::ConnectivityStateWatcherInterface *const, grpc_core::RefCountedPtr<grpc_core::Subchannel::ConnectivityStateWatcherInterface>>>, std::less<grpc_core::Subchannel::ConnectivityStateWatcherInterface *>>::_Rb_tree_impl" = type { %"struct.std::_Rb_tree_key_compare", %"struct.std::_Rb_tree_header" }
%"struct.std::_Rb_tree_key_compare" = type { %"struct.std::less" }
%"struct.std::less" = type { i8 }
%"struct.std::_Rb_tree_header" = type { %"struct.std::_Rb_tree_node_base", i64 }
%"struct.std::_Rb_tree_node_base" = type { i32, ptr, ptr, ptr }
%"class.std::_Function_base" = type { %"union.std::_Any_data", ptr }
%"union.std::_Any_data" = type { %"union.std::_Nocopy_types" }
%"union.std::_Nocopy_types" = type { { i64, i64 } }
%"class.grpc_core::Subchannel" = type { %"class.grpc_core::DualRefCounted", %"class.grpc_core::RefCountedPtr.50", %"class.grpc_core::SubchannelKey", %struct.grpc_resolved_address, %"class.grpc_core::ChannelArgs", ptr, %"class.grpc_core::RefCountedPtr", %"class.grpc_core::Duration", %"class.std::unique_ptr.51", %"struct.grpc_core::SubchannelConnector::Result", %struct.grpc_closure, %"class.absl::lts_20230802::Mutex", i8, i32, %"class.absl::lts_20230802::Status", %"class.grpc_core::Subchannel::ConnectivityStateWatcherList", %"class.grpc_core::WorkSerializer", %"class.grpc_core::RefCountedPtr.17", %"class.grpc_core::BackOff", %"class.grpc_core::Timestamp", %"struct.grpc_event_engine::experimental::EventEngine::TaskHandle", i32, %"class.std::map.63", %"class.std::shared_ptr" }
%"class.grpc_core::DualRefCounted" = type { %"class.grpc_core::Orphanable", %"struct.std::atomic.23" }
%"class.grpc_core::Orphanable" = type { ptr }
%"class.grpc_core::RefCountedPtr.50" = type { ptr }
%"class.grpc_core::SubchannelKey" = type { %struct.grpc_resolved_address, %"class.grpc_core::ChannelArgs" }
%struct.grpc_resolved_address = type { [128 x i8], i32 }
%"class.grpc_core::Duration" = type { i64 }
%"class.std::unique_ptr.51" = type { %"struct.std::__uniq_ptr_data.52" }
%"struct.std::__uniq_ptr_data.52" = type { %"class.std::__uniq_ptr_impl.53" }
%"class.std::__uniq_ptr_impl.53" = type { %"class.std::tuple.54" }
%"class.std::tuple.54" = type { %"struct.std::_Tuple_impl.55" }
%"struct.std::_Tuple_impl.55" = type { %"struct.std::_Head_base.56" }
%"struct.std::_Head_base.56" = type { ptr }
%"struct.grpc_core::SubchannelConnector::Result" = type { ptr, %"class.grpc_core::ChannelArgs", %"class.grpc_core::RefCountedPtr.32" }
%"class.grpc_core::WorkSerializer" = type { %"class.std::unique_ptr.57" }
%"class.std::unique_ptr.57" = type { %"struct.std::__uniq_ptr_data.58" }
%"struct.std::__uniq_ptr_data.58" = type { %"class.std::__uniq_ptr_impl.59" }
%"class.std::__uniq_ptr_impl.59" = type { %"class.std::tuple.60" }
%"class.std::tuple.60" = type { %"struct.std::_Tuple_impl.61" }
%"struct.std::_Tuple_impl.61" = type { %"struct.std::_Head_base.62" }
%"struct.std::_Head_base.62" = type { ptr }
%"class.grpc_core::BackOff" = type { %"class.grpc_core::BackOff::Options", %"class.absl::lts_20230802::random_internal::NonsecureURBGBase", i8, %"class.grpc_core::Duration" }
%"class.grpc_core::BackOff::Options" = type { %"class.grpc_core::Duration", double, double, %"class.grpc_core::Duration" }
%"class.absl::lts_20230802::random_internal::NonsecureURBGBase" = type { %"class.absl::lts_20230802::random_internal::randen_engine" }
%"class.absl::lts_20230802::random_internal::randen_engine" = type { [264 x i8], i64, %"class.absl::lts_20230802::random_internal::Randen" }
%"class.absl::lts_20230802::random_internal::Randen" = type <{ ptr, i8, [7 x i8] }>
%"struct.grpc_event_engine::experimental::EventEngine::TaskHandle" = type { [2 x i64] }
%"class.std::map.63" = type { %"class.std::_Rb_tree.64" }
%"class.std::_Rb_tree.64" = type { %"struct.std::_Rb_tree<grpc_core::UniqueTypeName, std::pair<const grpc_core::UniqueTypeName, grpc_core::Subchannel::DataProducerInterface *>, std::_Select1st<std::pair<const grpc_core::UniqueTypeName, grpc_core::Subchannel::DataProducerInterface *>>, std::less<grpc_core::UniqueTypeName>>::_Rb_tree_impl" }
%"struct.std::_Rb_tree<grpc_core::UniqueTypeName, std::pair<const grpc_core::UniqueTypeName, grpc_core::Subchannel::DataProducerInterface *>, std::_Select1st<std::pair<const grpc_core::UniqueTypeName, grpc_core::Subchannel::DataProducerInterface *>>, std::less<grpc_core::UniqueTypeName>>::_Rb_tree_impl" = type { %"struct.std::_Rb_tree_key_compare.68", %"struct.std::_Rb_tree_header" }
%"struct.std::_Rb_tree_key_compare.68" = type { %"struct.std::less.69" }
%"struct.std::less.69" = type { i8 }
%"class.std::shared_ptr" = type { %"class.std::__shared_ptr" }
%"class.std::__shared_ptr" = type { ptr, %"class.std::__shared_count" }
%"class.std::__shared_count" = type { ptr }
%"class.std::basic_string_view" = type { i64, ptr }
%"class.absl::lts_20230802::MutexLock" = type { ptr }
%"struct.std::_Rb_tree_iterator.153" = type { ptr }
%"struct.std::pair.154" = type <{ %"struct.std::_Rb_tree_iterator.153", i8, [7 x i8] }>
%"struct.std::pair.157" = type { %"class.grpc_core::UniqueTypeName", ptr }
%"class.grpc_core::UniqueTypeName" = type { %"class.std::basic_string_view" }
%"class.std::function.151" = type { %"class.std::_Function_base", ptr }
%"struct.std::_Rb_tree_node" = type { %"struct.std::_Rb_tree_node_base", %"struct.__gnu_cxx::__aligned_membuf" }
%"struct.__gnu_cxx::__aligned_membuf" = type { [24 x i8] }

; Function Attrs: mustprogress nounwind uwtable
define linkonce_odr noundef ptr @_ZN9__gnu_cxx16__aligned_membufISt4pairIKN9grpc_core14UniqueTypeNameEPNS2_10Subchannel21DataProducerInterfaceEEE7_M_addrEv(ptr noundef nonnull align 8 dereferenceable(24) %this) #5 comdat align 2 {
entry:
  %this.addr = alloca ptr, align 8
  store ptr %this, ptr %this.addr, align 8
  %this1 = load ptr, ptr %this.addr, align 8
  %_M_storage = getelementptr inbounds %"struct.__gnu_cxx::__aligned_membuf", ptr %this1, i32 0, i32 0
  ret ptr %_M_storage
}

; Function Attrs: mustprogress nounwind uwtable
define linkonce_odr noundef ptr @_ZN9__gnu_cxx16__aligned_membufISt4pairIKN9grpc_core14UniqueTypeNameEPNS2_10Subchannel21DataProducerInterfaceEEE6_M_ptrEv(ptr noundef nonnull align 8 dereferenceable(24) %this) #5 comdat align 2 {
entry:
  %this.addr = alloca ptr, align 8
  store ptr %this, ptr %this.addr, align 8
  %this1 = load ptr, ptr %this.addr, align 8
  %call = call noundef ptr @_ZN9__gnu_cxx16__aligned_membufISt4pairIKN9grpc_core14UniqueTypeNameEPNS2_10Subchannel21DataProducerInterfaceEEE7_M_addrEv(ptr noundef nonnull align 8 dereferenceable(24) %this1) #3
  ret ptr %call
}

; Function Attrs: mustprogress nounwind uwtable
define linkonce_odr noundef zeroext i1 @_ZNKSt14_Function_base8_M_emptyEv(ptr noundef nonnull align 8 dereferenceable(24) %this) #5 comdat align 2 {
entry:
  %this.addr = alloca ptr, align 8
  store ptr %this, ptr %this.addr, align 8
  %this1 = load ptr, ptr %this.addr, align 8
  %_M_manager = getelementptr inbounds %"class.std::_Function_base", ptr %this1, i32 0, i32 1
  %0 = load ptr, ptr %_M_manager, align 8
  %tobool = icmp ne ptr %0, null
  %lnot = xor i1 %tobool, true
  ret i1 %lnot
}

; Function Attrs: mustprogress nounwind uwtable
define linkonce_odr noundef ptr @_ZNSt13_Rb_tree_nodeISt4pairIKN9grpc_core14UniqueTypeNameEPNS1_10Subchannel21DataProducerInterfaceEEE9_M_valptrEv(ptr noundef nonnull align 8 dereferenceable(56) %this) #5 comdat align 2 {
entry:
  %this.addr = alloca ptr, align 8
  store ptr %this, ptr %this.addr, align 8
  %this1 = load ptr, ptr %this.addr, align 8
  %_M_storage = getelementptr inbounds %"struct.std::_Rb_tree_node", ptr %this1, i32 0, i32 1
  %call = call noundef ptr @_ZN9__gnu_cxx16__aligned_membufISt4pairIKN9grpc_core14UniqueTypeNameEPNS2_10Subchannel21DataProducerInterfaceEEE6_M_ptrEv(ptr noundef nonnull align 8 dereferenceable(24) %_M_storage) #3
  ret ptr %call
}

; Function Attrs: mustprogress nounwind uwtable
define linkonce_odr void @_ZN4absl12lts_202308029MutexLockD2Ev(ptr noundef nonnull align 8 dereferenceable(8) %this) unnamed_addr #5 comdat align 2 personality ptr @__gxx_personality_v0 {
entry:
  %this.addr = alloca ptr, align 8
  store ptr %this, ptr %this.addr, align 8
  %this1 = load ptr, ptr %this.addr, align 8
  %mu_ = getelementptr inbounds %"class.absl::lts_20230802::MutexLock", ptr %this1, i32 0, i32 0
  %0 = load ptr, ptr %mu_, align 8
  invoke void @_ZN4absl12lts_202308025Mutex6UnlockEv(ptr noundef nonnull align 8 dereferenceable(8) %0)
          to label %invoke.cont unwind label %terminate.lpad

invoke.cont:                                      ; preds = %entry
  ret void

terminate.lpad:                                   ; preds = %entry
  %1 = landingpad { ptr, i32 }
          catch ptr null
  %2 = extractvalue { ptr, i32 } %1, 0
  call void @__clang_call_terminate(ptr %2) #18
  unreachable
}

; Function Attrs: mustprogress uwtable
define linkonce_odr void @_ZNKSt8functionIFvPPN9grpc_core10Subchannel21DataProducerInterfaceEEEclES4_(ptr noundef nonnull align 8 dereferenceable(32) %this, ptr noundef %__args) #4 comdat align 2 {
entry:
  %this.addr = alloca ptr, align 8
  %__args.addr = alloca ptr, align 8
  store ptr %this, ptr %this.addr, align 8
  store ptr %__args, ptr %__args.addr, align 8
  %this1 = load ptr, ptr %this.addr, align 8
  %call = call noundef zeroext i1 @_ZNKSt14_Function_base8_M_emptyEv(ptr noundef nonnull align 8 dereferenceable(24) %this1)
  br i1 %call, label %if.then, label %if.end

if.then:                                          ; preds = %entry
  call void @_ZSt25__throw_bad_function_callv() #20
  unreachable

if.end:                                           ; preds = %entry
  %_M_invoker = getelementptr inbounds %"class.std::function.151", ptr %this1, i32 0, i32 1
  %0 = load ptr, ptr %_M_invoker, align 8
  %_M_functor = getelementptr inbounds %"class.std::_Function_base", ptr %this1, i32 0, i32 0
  call void %0(ptr noundef nonnull align 8 dereferenceable(16) %_M_functor, ptr noundef nonnull align 8 dereferenceable(8) %__args.addr)
  ret void
}

; Function Attrs: mustprogress nounwind uwtable
define linkonce_odr noundef ptr @_ZNKSt17_Rb_tree_iteratorISt4pairIKN9grpc_core14UniqueTypeNameEPNS1_10Subchannel21DataProducerInterfaceEEEptEv(ptr noundef nonnull align 8 dereferenceable(8) %this) #5 comdat align 2 {
entry:
  %this.addr = alloca ptr, align 8
  store ptr %this, ptr %this.addr, align 8
  %this1 = load ptr, ptr %this.addr, align 8
  %_M_node = getelementptr inbounds %"struct.std::_Rb_tree_iterator.153", ptr %this1, i32 0, i32 0
  %0 = load ptr, ptr %_M_node, align 8
  %call = call noundef ptr @_ZNSt13_Rb_tree_nodeISt4pairIKN9grpc_core14UniqueTypeNameEPNS1_10Subchannel21DataProducerInterfaceEEE9_M_valptrEv(ptr noundef nonnull align 8 dereferenceable(56) %0)
  ret ptr %call
}

; Function Attrs: mustprogress uwtable
define linkonce_odr void @_ZN4absl12lts_202308029MutexLockC2EPNS0_5MutexE(ptr noundef nonnull align 8 dereferenceable(8) %this, ptr noundef %mu) unnamed_addr #4 comdat align 2 {
entry:
  %this.addr = alloca ptr, align 8
  %mu.addr = alloca ptr, align 8
  store ptr %this, ptr %this.addr, align 8
  store ptr %mu, ptr %mu.addr, align 8
  %this1 = load ptr, ptr %this.addr, align 8
  %mu_ = getelementptr inbounds %"class.absl::lts_20230802::MutexLock", ptr %this1, i32 0, i32 0
  %0 = load ptr, ptr %mu.addr, align 8
  store ptr %0, ptr %mu_, align 8
  %mu_2 = getelementptr inbounds %"class.absl::lts_20230802::MutexLock", ptr %this1, i32 0, i32 0
  %1 = load ptr, ptr %mu_2, align 8
  call void @_ZN4absl12lts_202308025Mutex4LockEv(ptr noundef nonnull align 8 dereferenceable(8) %1)
  ret void
}

; Function Attrs: mustprogress uwtable
define void @_ZN9grpc_core10Subchannel20GetOrAddDataProducerENS_14UniqueTypeNameESt8functionIFvPPNS0_21DataProducerInterfaceEEE(ptr noundef nonnull align 8 dereferenceable(928) %this, ptr noundef %type, ptr noundef %get_or_add) #4 align 2 personality ptr @__gxx_personality_v0 {
entry:
  %this.addr = alloca ptr, align 8
  %type.indirect_addr = alloca ptr, align 8
  %get_or_add.indirect_addr = alloca ptr, align 8
  %lock = alloca %"class.absl::lts_20230802::MutexLock", align 8
  %it = alloca %"struct.std::_Rb_tree_iterator.153", align 8
  %ref.tmp = alloca %"struct.std::pair.154", align 8
  %ref.tmp2 = alloca ptr, align 8
  %exn.slot = alloca ptr, align 8
  %ehselector.slot = alloca i32, align 4
  store ptr %this, ptr %this.addr, align 8
  store ptr %type, ptr %type.indirect_addr, align 8
  store ptr %get_or_add, ptr %get_or_add.indirect_addr, align 8
  %this1 = load ptr, ptr %this.addr, align 8
  %mu_ = getelementptr inbounds %"class.grpc_core::Subchannel", ptr %this1, i32 0, i32 11
  call void @_ZN4absl12lts_202308029MutexLockC2EPNS0_5MutexE(ptr noundef nonnull align 8 dereferenceable(8) %lock, ptr noundef %mu_)
  %data_producer_map_ = getelementptr inbounds %"class.grpc_core::Subchannel", ptr %this1, i32 0, i32 22
  store ptr null, ptr %ref.tmp2, align 8
  %call = invoke { ptr, i8 } @_ZNSt3mapIN9grpc_core14UniqueTypeNameEPNS0_10Subchannel21DataProducerInterfaceESt4lessIS1_ESaISt4pairIKS1_S4_EEE7emplaceIJRS1_DnEEES7_ISt17_Rb_tree_iteratorIS9_EbEDpOT_(ptr noundef nonnull align 8 dereferenceable(48) %data_producer_map_, ptr noundef nonnull align 8 dereferenceable(16) %type, ptr noundef nonnull align 8 dereferenceable(8) %ref.tmp2)
          to label %invoke.cont unwind label %lpad

invoke.cont:                                      ; preds = %entry
  %0 = getelementptr inbounds { ptr, i8 }, ptr %ref.tmp, i32 0, i32 0
  %1 = extractvalue { ptr, i8 } %call, 0
  store ptr %1, ptr %0, align 8
  %2 = getelementptr inbounds { ptr, i8 }, ptr %ref.tmp, i32 0, i32 1
  %3 = extractvalue { ptr, i8 } %call, 1
  store i8 %3, ptr %2, align 8
  %first = getelementptr inbounds %"struct.std::pair.154", ptr %ref.tmp, i32 0, i32 0
  call void @llvm.memcpy.p0.p0.i64(ptr align 8 %it, ptr align 8 %first, i64 8, i1 false)
  %call3 = call noundef ptr @_ZNKSt17_Rb_tree_iteratorISt4pairIKN9grpc_core14UniqueTypeNameEPNS1_10Subchannel21DataProducerInterfaceEEEptEv(ptr noundef nonnull align 8 dereferenceable(8) %it) #3
  %second = getelementptr inbounds %"struct.std::pair.157", ptr %call3, i32 0, i32 1
  invoke void @_ZNKSt8functionIFvPPN9grpc_core10Subchannel21DataProducerInterfaceEEEclES4_(ptr noundef nonnull align 8 dereferenceable(32) %get_or_add, ptr noundef %second)
          to label %invoke.cont4 unwind label %lpad

invoke.cont4:                                     ; preds = %invoke.cont
  call void @_ZN4absl12lts_202308029MutexLockD2Ev(ptr noundef nonnull align 8 dereferenceable(8) %lock) #3
  ret void

lpad:                                             ; preds = %invoke.cont, %entry
  %4 = landingpad { ptr, i32 }
          cleanup
  %5 = extractvalue { ptr, i32 } %4, 0
  store ptr %5, ptr %exn.slot, align 8
  %6 = extractvalue { ptr, i32 } %4, 1
  store i32 %6, ptr %ehselector.slot, align 4
  call void @_ZN4absl12lts_202308029MutexLockD2Ev(ptr noundef nonnull align 8 dereferenceable(8) %lock) #3
  br label %eh.resume

eh.resume:                                        ; preds = %lpad
  %exn = load ptr, ptr %exn.slot, align 8
  %sel = load i32, ptr %ehselector.slot, align 4
  %lpad.val = insertvalue { ptr, i32 } poison, ptr %exn, 0
  %lpad.val5 = insertvalue { ptr, i32 } %lpad.val, i32 %sel, 1
  resume { ptr, i32 } %lpad.val5
}