; Function Attrs: mustprogress uwtable
define void @_ZN9grpc_core10Subchannel20GetOrAddDataProducerENS_14UniqueTypeNameESt8functionIFvPPNS0_21DataProducerInterfaceEEE(ptr noundef nonnull align 8 dereferenceable(928) %this, ptr noundef %type, ptr noundef %get_or_add) local_unnamed_addr #3 align 2 personality ptr @__gxx_personality_v0 {
entry:
  %__args.addr.i = alloca ptr, align 8
  %ref.tmp2 = alloca ptr, align 8
  %mu_ = getelementptr inbounds i8, ptr %this, i64 400
  tail call void @_ZN4absl12lts_202308025Mutex4LockEv(ptr noundef nonnull align 8 dereferenceable(8) %mu_)
  %data_producer_map_ = getelementptr inbounds i8, ptr %this, i64 864
  store ptr null, ptr %ref.tmp2, align 8
  %call = invoke { ptr, i8 } @_ZNSt3mapIN9grpc_core14UniqueTypeNameEPNS0_10Subchannel21DataProducerInterfaceESt4lessIS1_ESaISt4pairIKS1_S4_EEE7emplaceIJRS1_DnEEES7_ISt17_Rb_tree_iteratorIS9_EbEDpOT_(ptr noundef nonnull align 8 dereferenceable(48) %data_producer_map_, ptr noundef nonnull align 8 dereferenceable(16) %type, ptr noundef nonnull align 8 dereferenceable(8) %ref.tmp2)
          to label %invoke.cont unwind label %lpad

invoke.cont:                                      ; preds = %entry
  %0 = extractvalue { ptr, i8 } %call, 0
  %second = getelementptr inbounds i8, ptr %0, i64 48
  call void @llvm.lifetime.start.p0(i64 8, ptr nonnull %__args.addr.i)
  store ptr %second, ptr %__args.addr.i, align 8
  %_M_manager.i.i = getelementptr inbounds i8, ptr %get_or_add, i64 16
  %1 = load ptr, ptr %_M_manager.i.i, align 8
  %tobool.not.i.i = icmp eq ptr %1, null
  br i1 %tobool.not.i.i, label %if.then.i, label %if.end.i

if.then.i:                                        ; preds = %invoke.cont
  invoke void @_ZSt25__throw_bad_function_callv() #29
          to label %.noexc unwind label %lpad

.noexc:                                           ; preds = %if.then.i
  unreachable

if.end.i:                                         ; preds = %invoke.cont
  %_M_invoker.i = getelementptr inbounds i8, ptr %get_or_add, i64 24
  %2 = load ptr, ptr %_M_invoker.i, align 8
  invoke void %2(ptr noundef nonnull align 8 dereferenceable(16) %get_or_add, ptr noundef nonnull align 8 dereferenceable(8) %__args.addr.i)
          to label %invoke.cont4 unwind label %lpad

invoke.cont4:                                     ; preds = %if.end.i
  call void @llvm.lifetime.end.p0(i64 8, ptr nonnull %__args.addr.i)
  invoke void @_ZN4absl12lts_202308025Mutex6UnlockEv(ptr noundef nonnull align 8 dereferenceable(8) %mu_)
          to label %_ZN4absl12lts_202308029MutexLockD2Ev.exit unwind label %terminate.lpad.i

terminate.lpad.i:                                 ; preds = %invoke.cont4
  %3 = landingpad { ptr, i32 }
          catch ptr null
  %4 = extractvalue { ptr, i32 } %3, 0
  call void @__clang_call_terminate(ptr %4) #27
  unreachable

_ZN4absl12lts_202308029MutexLockD2Ev.exit:        ; preds = %invoke.cont4
  ret void

lpad:                                             ; preds = %if.end.i, %if.then.i, %entry
  %5 = landingpad { ptr, i32 }
          cleanup
  invoke void @_ZN4absl12lts_202308025Mutex6UnlockEv(ptr noundef nonnull align 8 dereferenceable(8) %mu_)
          to label %_ZN4absl12lts_202308029MutexLockD2Ev.exit3 unwind label %terminate.lpad.i2

terminate.lpad.i2:                                ; preds = %lpad
  %6 = landingpad { ptr, i32 }
          catch ptr null
  %7 = extractvalue { ptr, i32 } %6, 0
  call void @__clang_call_terminate(ptr %7) #27
  unreachable

_ZN4absl12lts_202308029MutexLockD2Ev.exit3:       ; preds = %lpad
  resume { ptr, i32 } %5
}